Certificate:
    Data:
        Version: 3 (0x2)
        Serial Number:
            20:f4:46:d6:82:c8:45:d5:ed:bd:91:89:d2:97:6a:3e
        Signature Algorithm: sha256WithRSAEncryption
        Issuer: C=US, ST=Nevada, L=Carson City, O=TYS LLC, OU=Root, CN=TYSRoot/emailAddress=root@tys.sh
        Validity
            Not Before: Jun 21 23:30:27 2026 GMT
            Not After : Jun 18 23:30:27 2036 GMT
        Subject: C=US, ST=Nevada, L=Carson City, O=TYS LLC, OU=Root, CN=TYS Root OCSP Responder/emailAddress=root@tys.sh
        Subject Public Key Info:
            Public Key Algorithm: rsaEncryption
                Public-Key: (4096 bit)
                Modulus:
                    00:c9:f0:7b:c7:1d:1f:7a:10:52:80:0f:ba:3b:ce:
                    38:e7:f9:22:a4:7c:b6:8a:5b:a8:06:64:2d:c6:64:
                    24:dc:07:17:3e:08:30:a7:62:b8:45:8f:7d:3f:92:
                    1e:2e:58:1e:ef:35:37:4f:2e:54:b9:49:c9:b4:74:
                    81:bc:ae:43:c9:3a:f6:4f:0a:0a:de:1a:0a:5a:51:
                    d6:1d:de:04:be:b7:9e:ba:04:06:49:04:d1:aa:24:
                    7f:dd:78:0e:84:85:51:28:cb:6a:18:0f:f4:61:55:
                    ca:64:d1:45:36:31:5d:54:ee:2c:2d:be:4e:0a:20:
                    62:c9:00:9d:1e:da:6d:ff:8d:15:fc:6e:22:62:1e:
                    fc:13:e6:d7:51:00:c4:c2:c1:49:d7:7f:9c:14:f3:
                    72:e7:c1:11:c7:16:88:f0:ad:a3:b5:9a:96:46:1c:
                    36:6d:92:7f:7a:5b:33:ce:10:0c:9b:3a:9b:2f:1f:
                    cd:52:e8:f7:88:66:dd:7d:33:14:d2:4c:78:de:06:
                    9a:ef:de:c6:a7:3f:c6:4e:7d:7e:44:27:3f:13:7c:
                    4b:fa:4f:87:7b:de:d1:82:17:bd:09:47:07:a6:6c:
                    bb:0f:cc:df:c3:a8:69:a2:03:73:44:2b:86:1b:ab:
                    08:62:e8:97:45:c2:e0:7f:75:42:51:51:64:de:01:
                    4a:fb:50:97:76:77:aa:d9:4e:58:44:e5:03:3b:89:
                    ad:88:63:e8:61:d3:98:a5:3a:92:58:24:7a:3d:e5:
                    aa:61:67:bc:c7:cc:22:a6:68:74:fb:37:66:0c:6c:
                    21:c6:8f:44:b8:19:28:e8:cf:6d:93:8c:db:e0:f9:
                    c0:ac:1f:c8:4d:a7:8f:13:3e:b9:c7:a1:b1:59:3d:
                    71:7c:11:3f:72:8d:ca:0d:b7:96:23:d4:3b:2d:42:
                    2b:7e:53:3f:b4:55:11:fe:e1:4d:c1:bd:99:e5:94:
                    18:ac:80:ae:1d:39:65:5b:96:ab:cc:68:d2:58:da:
                    df:4d:bc:e9:66:54:ee:12:55:e0:a5:8f:21:45:40:
                    8d:45:fe:fe:9d:4e:0a:41:10:aa:59:45:c0:59:8b:
                    66:f0:09:8a:51:a6:c7:6b:3d:ae:0b:cb:3e:49:00:
                    3b:ba:98:34:12:05:d0:e4:38:22:45:e0:3b:a4:ba:
                    13:b7:27:d0:cc:01:04:10:ad:16:40:1d:d6:f2:75:
                    cf:7b:56:a2:f0:fa:5e:36:f4:79:8d:92:cf:f9:52:
                    db:d2:cf:85:7c:6a:2c:d7:dc:50:f0:8a:ec:40:61:
                    22:bc:ab:2e:09:57:a4:dc:fd:5f:c5:5b:b3:bc:08:
                    20:ec:06:87:28:b6:b0:13:85:dc:dd:e8:7a:83:84:
                    80:81:8d
                Exponent: 65537 (0x10001)
        X509v3 extensions:
            X509v3 Basic Constraints: critical
                CA:FALSE
            X509v3 Subject Key Identifier: 
                22:8C:85:8B:C4:21:8E:56:DF:BB:81:FC:61:29:6E:26:79:6D:80:E6
            X509v3 Authority Key Identifier: 
                9A:A0:17:5A:EB:65:57:AA:56:A6:DD:AE:2D:AF:07:C8:D4:E3:4A:BD
            X509v3 Extended Key Usage: critical
                OCSP Signing
            X509v3 Key Usage: critical
                Digital Signature
            OCSP No Check: 

    Signature Algorithm: sha256WithRSAEncryption
    Signature Value:
        36:6a:ac:af:25:5d:07:7c:07:30:67:0a:59:ad:fa:0c:44:d3:
        0f:b7:0e:a3:7b:86:91:26:6e:fd:66:80:43:dc:04:9f:16:1d:
        f5:24:2c:25:ed:de:ff:a0:82:53:c3:11:2c:7f:fa:47:25:dd:
        f0:18:d0:6b:6f:0f:9c:5e:69:9c:72:3e:15:5b:25:aa:ec:f7:
        06:7f:c7:b0:80:1c:85:c5:fe:7f:7a:03:b7:d9:35:07:88:a5:
        3e:dc:49:60:2c:8d:4f:9d:30:87:a0:51:df:09:49:90:e3:40:
        b6:a2:c8:6a:0d:71:65:41:fe:95:54:99:87:99:0e:8d:6b:cd:
        55:87:dc:70:6e:aa:bf:66:80:4f:0f:e0:20:7e:54:9b:df:dd:
        ad:f2:6e:f7:4e:57:02:12:36:97:fb:c0:0b:06:35:c2:52:ca:
        fb:27:3e:ab:9e:e1:b6:e9:d0:fb:69:e8:a1:3d:f9:d5:61:0a:
        64:d4:15:ef:77:45:b6:a7:e5:4e:21:10:74:ac:8d:a8:bf:f0:
        e5:6e:fb:2e:5a:c4:dd:ee:b1:5b:08:81:35:5d:9c:7f:dc:bf:
        8a:15:b7:1f:95:cc:7b:4d:03:9c:75:df:0a:c3:60:de:87:f9:
        60:fb:8e:f6:6e:06:e4:4f:f5:93:21:30:54:30:07:7b:17:08:
        4a:4a:d6:d0:82:31:f4:f6:80:1c:b6:8f:41:30:8f:5c:61:81:
        11:5c:44:f4:32:29:79:28:07:c0:d9:66:bc:16:12:62:27:8f:
        0e:4d:ec:4d:37:89:a6:df:d4:07:e3:59:ea:94:7d:ba:92:ab:
        1a:51:0b:a7:a5:c7:1e:26:7e:a0:63:28:e9:3a:c4:e6:ca:10:
        9f:b1:53:d7:f4:ff:80:69:d5:a5:b2:fd:5c:1b:ae:6b:68:b5:
        8a:81:31:07:9b:2d:bc:cd:c0:28:37:6c:97:60:83:16:7c:55:
        92:d9:3f:4f:e9:e0:6d:32:ec:0e:41:82:cc:5c:72:33:1c:9a:
        80:f2:17:ff:e6:e5:a5:b3:d7:a1:7a:9a:fe:2d:e8:0d:63:eb:
        cf:83:62:85:e9:c7:19:fd:3f:70:7b:3c:86:37:1e:7c:a5:9d:
        8a:ec:73:31:0a:c8:58:67:c5:fc:7f:cb:89:65:c7:1b:8f:50:
        dd:e2:5c:2b:e5:36:f6:fd:d7:21:be:a2:54:9f:bc:35:bc:bb:
        de:8e:75:c0:23:d5:79:92:59:c4:4e:ec:78:5d:57:1f:7b:75:
        d6:80:bd:0a:b1:a2:e1:8c:6d:8b:61:fe:70:49:b9:97:98:ce:
        d3:5c:a6:e1:b3:c3:10:a0:94:fa:35:3b:b8:bf:76:5e:2e:d6:
        21:5a:81:de:d4:b5:2e:3f
-----BEGIN CERTIFICATE-----
MIIGLTCCBBWgAwIBAgIQIPRG1oLIRdXtvZGJ0pdqPjANBgkqhkiG9w0BAQsFADCB
gzELMAkGA1UEBhMCVVMxDzANBgNVBAgMBk5ldmFkYTEUMBIGA1UEBwwLQ2Fyc29u
IENpdHkxEDAOBgNVBAoMB1RZUyBMTEMxDTALBgNVBAsMBFJvb3QxEDAOBgNVBAMM
B1RZU1Jvb3QxGjAYBgkqhkiG9w0BCQEWC3Jvb3RAdHlzLnNoMB4XDTI2MDYyMTIz
MzAyN1oXDTM2MDYxODIzMzAyN1owgZMxCzAJBgNVBAYTAlVTMQ8wDQYDVQQIDAZO
ZXZhZGExFDASBgNVBAcMC0NhcnNvbiBDaXR5MRAwDgYDVQQKDAdUWVMgTExDMQ0w
CwYDVQQLDARSb290MSAwHgYDVQQDDBdUWVMgUm9vdCBPQ1NQIFJlc3BvbmRlcjEa
MBgGCSqGSIb3DQEJARYLcm9vdEB0eXMuc2gwggIiMA0GCSqGSIb3DQEBAQUAA4IC
DwAwggIKAoICAQDJ8HvHHR96EFKAD7o7zjjn+SKkfLaKW6gGZC3GZCTcBxc+CDCn
YrhFj30/kh4uWB7vNTdPLlS5Scm0dIG8rkPJOvZPCgreGgpaUdYd3gS+t566BAZJ
BNGqJH/deA6EhVEoy2oYD/RhVcpk0UU2MV1U7iwtvk4KIGLJAJ0e2m3/jRX8biJi
HvwT5tdRAMTCwUnXf5wU83LnwRHHFojwraO1mpZGHDZtkn96WzPOEAybOpsvH81S
6PeIZt19MxTSTHjeBprv3sanP8ZOfX5EJz8TfEv6T4d73tGCF70JRwembLsPzN/D
qGmiA3NEK4Ybqwhi6JdFwuB/dUJRUWTeAUr7UJd2d6rZTlhE5QM7ia2IY+hh05il
OpJYJHo95aphZ7zHzCKmaHT7N2YMbCHGj0S4GSjoz22TjNvg+cCsH8hNp48TPrnH
obFZPXF8ET9yjcoNt5Yj1DstQit+Uz+0VRH+4U3BvZnllBisgK4dOWVblqvMaNJY
2t9NvOlmVO4SVeCljyFFQI1F/v6dTgpBEKpZRcBZi2bwCYpRpsdrPa4Lyz5JADu6
mDQSBdDkOCJF4DukuhO3J9DMAQQQrRZAHdbydc97VqLw+l429HmNks/5UtvSz4V8
aizX3FDwiuxAYSK8qy4JV6Tc/V/FW7O8CCDsBocotrAThdzd6HqDhICBjQIDAQAB
o4GKMIGHMAwGA1UdEwEB/wQCMAAwHQYDVR0OBBYEFCKMhYvEIY5W37uB/GEpbiZ5
bYDmMB8GA1UdIwQYMBaAFJqgF1rrZVeqVqbdri2vB8jU40q9MBYGA1UdJQEB/wQM
MAoGCCsGAQUFBwMJMA4GA1UdDwEB/wQEAwIHgDAPBgkrBgEFBQcwAQUEAgUAMA0G
CSqGSIb3DQEBCwUAA4ICAQA2aqyvJV0HfAcwZwpZrfoMRNMPtw6je4aRJm79ZoBD
3ASfFh31JCwl7d7/oIJTwxEsf/pHJd3wGNBrbw+cXmmccj4VWyWq7PcGf8ewgByF
xf5/egO32TUHiKU+3ElgLI1PnTCHoFHfCUmQ40C2oshqDXFlQf6VVJmHmQ6Na81V
h9xwbqq/ZoBPD+AgflSb392t8m73TlcCEjaX+8ALBjXCUsr7Jz6rnuG26dD7aeih
PfnVYQpk1BXvd0W2p+VOIRB0rI2ov/DlbvsuWsTd7rFbCIE1XZx/3L+KFbcflcx7
TQOcdd8Kw2Deh/lg+472bgbkT/WTITBUMAd7FwhKStbQgjH09oActo9BMI9cYYER
XET0Mil5KAfA2Wa8FhJiJ48OTexNN4mm39QH41nqlH26kqsaUQunpcceJn6gYyjp
OsTmyhCfsVPX9P+AadWlsv1cG65raLWKgTEHmy28zcAoN2yXYIMWfFWS2T9P6eBt
MuwOQYLMXHIzHJqA8hf/5uWls9ehepr+LegNY+vPg2KF6ccZ/T9wezyGNx58pZ2K
7HMxCshYZ8X8f8uJZccbj1Dd4lwr5Tb2/dchvqJUn7w1vLvejnXAI9V5klnETux4
XVcfe3XWgL0KsaLhjG2LYf5wSbmXmM7TXKbhs8MQoJT6NTu4v3ZeLtYhWoHe1LUu
Pw==
-----END CERTIFICATE-----
-----BEGIN CERTIFICATE-----
MIIH3DCCBcSgAwIBAgIUVd1meVth9DPZnUEdGyf6STUa2RkwDQYJKoZIhvcNAQEL
BQAwgYMxCzAJBgNVBAYTAlVTMQ8wDQYDVQQIDAZOZXZhZGExFDASBgNVBAcMC0Nh
cnNvbiBDaXR5MRAwDgYDVQQKDAdUWVMgTExDMQ0wCwYDVQQLDARSb290MRAwDgYD
VQQDDAdUWVNSb290MRowGAYJKoZIhvcNAQkBFgtyb290QHR5cy5zaDAeFw0yNTA0
MjAyMzM3NDBaFw0zNTA0MTgyMzM3NDBaMIGDMQswCQYDVQQGEwJVUzEPMA0GA1UE
CAwGTmV2YWRhMRQwEgYDVQQHDAtDYXJzb24gQ2l0eTEQMA4GA1UECgwHVFlTIExM
QzENMAsGA1UECwwEUm9vdDEQMA4GA1UEAwwHVFlTUm9vdDEaMBgGCSqGSIb3DQEJ
ARYLcm9vdEB0eXMuc2gwggIiMA0GCSqGSIb3DQEBAQUAA4ICDwAwggIKAoICAQCj
UWGQpiC+fh4EsqP5zPKZo7IfvhQuhWM6yhnAdB4CaUBFBUFy8+Enz4jiezyf9CSc
Fmqzf1IoFBlIeUdpYMdp+p6IO9RTfOeiD1Lwed2zlKnMBhsDoBqKy6MtqJTQ2kUD
nAgAQSg6oaThD/ITFBqfFuU4z0+pQqG0LE8bKhGD4UBCOcD+9XpKP+5+O71Rl1hP
OtPQrTu8gflZxH59eqy+Eaa85cth4TimXDwudAdPe7meULzxj4pEQiMM0eHIn3RX
54WSSpcCArnd1y/2l2sfXl+ivHuHqJPPxVUmbPv10LJdnc1+F7/mYEur1X3WiPt8
E7h5kEJg2zg5MV2dEj+0tQ3thtN1Jr/dw9l7IeqNAT4XgsuyOJ19ByfDbb/1OpAi
UA/YjW29Gq9b7Ay9n7LeCErtRzMzwpnThm84D38ak6KPxLhmWpz51v63WPZhorhS
qUoMbRQ0h97+JCxO589tWr7vIc0NWegu0VapfKTfF6o6GiCS6uKTpiRItoHLy07E
PRcXOrFcrRY5knKzUhmjifBK89T7z8EG2n7la79HCqFuWNwyIeuHk40MqBQBcjnK
sPhah6l28X5sOD9yH6GwI4JcA3BFLrndbEsqs4CWEVdH5fa1IVkBFMaBY2xxmuT2
NPr//1QQ1fW4GA5qBBmqBTB/yUkcR+L0JUVso742aQIDAQABo4ICRDCCAkAwEgYD
VR0TAQH/BAgwBgEB/wIBAjAdBgNVHQ4EFgQUmqAXWutlV6pWpt2uLa8HyNTjSr0w
gcMGA1UdIwSBuzCBuIAUmqAXWutlV6pWpt2uLa8HyNTjSr2hgYmkgYYwgYMxCzAJ
BgNVBAYTAlVTMQ8wDQYDVQQIDAZOZXZhZGExFDASBgNVBAcMC0NhcnNvbiBDaXR5
MRAwDgYDVQQKDAdUWVMgTExDMQ0wCwYDVQQLDARSb290MRAwDgYDVQQDDAdUWVNS
b290MRowGAYJKoZIhvcNAQkBFgtyb290QHR5cy5zaIIUVd1meVth9DPZnUEdGyf6
STUa2RkwDgYDVR0PAQH/BAQDAgEGMGAGA1UdHwRZMFcwJ6AloCOGIWh0dHBzOi8v
cGtpLnR5cy5zaC90eXNyb290L2NhLmNybDAsoCqgKIYmaHR0cHM6Ly9jZG4udHlz
cy5pby9wa2kvdHlzcm9vdC9jYS5jcmwwgdIGCCsGAQUFBwEBBIHFMIHCMC0GCCsG
AQUFBzAChiFodHRwczovL3BraS50eXMuc2gvdHlzcm9vdC9jYS5jcnQwMgYIKwYB
BQUHMAKGJmh0dHBzOi8vY2RuLnR5c3MuaW8vcGtpL3R5c3Jvb3QvY2EuY3J0MCsG
CCsGAQUFBzABhh9odHRwczovL3BraS50eXMuc2gvdHlzcm9vdC9vY3NwMDAGCCsG
AQUFBzABhiRodHRwczovL2Nkbi50eXNzLmlvL3BraS90eXNyb290L29jc3AwDQYJ
KoZIhvcNAQELBQADggIBAFv+6pNp+K0L+zLeXbUcTCt37wIkFCBjj9yGd6G0GoDO
Ait6si9zLpK7Rd5+BFUTumD7h0tHK71DSPH1a48rZ7dd/qhyH6MB8eT3XoJ8AJaJ
bDTf9NSr/pdZt54hEb7+NIqvNqfFMf0AMSQ5ZN6XcVj74pksCwso1VEG3fh2Qzbh
oC8xkFr4zL0UqWJgjHAsjMx+1fhlcaic5j+WefnAW9vMt4D42F1tcLsukUqxD6MZ
23AYdTswJngw3PlQeNZ7MaePHVtZenQfa5Zfn15X1zLITYTze2PzxDT09hDkpfG4
W/yg7gZx5yvwo1GoWAsNRmpI7Rlv8BFNnirzgW7uwVNs03yXZdoTFlFa2i0ga6Nc
CkKhWMTFRgUV9jpnLHccQZoYsAzLCSkmMfP6DmyyVA1BLJqkEOeN8g7HpTdBqN8A
z0iNdGBUaC743qEV6iTb9Vv2VaKRkAMQcafuzkp/i/ZMCb2NAk0C9YYAsOfvlQfj
oFWOoDAsC69uExB+0Pel35h1MYrEmIGOcZmIk8ouBHwIPBzoUlsvb4shx3JFpQOr
hEuZO6qi3Ctht3sFtaxAQv0idLfLYSqARBo0hcVwWl8QDHqma88YDa/cbwIjwV6Q
cUqsrHuqFP7ptswkIP0r3ieYPnK/0hRWMcWNAc0/HaATRsk0MUuvy/8TvDaxEFZ+
-----END CERTIFICATE-----
