Certificate Revocation List (CRL):
        Version 2 (0x1)
        Signature Algorithm: sha256WithRSAEncryption
        Issuer: C = US, ST = Nevada, L = Carson City, O = TYS LLC, OU = Root, CN = TYSRoot, emailAddress = root@tys.sh
        Last Update: Apr 23 21:49:35 2025 GMT
        Next Update: Apr 21 21:49:35 2035 GMT
        CRL extensions:
            X509v3 Authority Key Identifier: 
                keyid:9A:A0:17:5A:EB:65:57:AA:56:A6:DD:AE:2D:AF:07:C8:D4:E3:4A:BD
                DirName:/C=US/ST=Nevada/L=Carson City/O=TYS LLC/OU=Root/CN=TYSRoot/emailAddress=root@tys.sh
                serial:55:DD:66:79:5B:61:F4:33:D9:9D:41:1D:1B:27:FA:49:35:1A:D9:19
            X509v3 CRL Number: 
                0
No Revoked Certificates.
    Signature Algorithm: sha256WithRSAEncryption
    Signature Value:
        95:2e:ec:f8:eb:b0:e9:d6:e8:e4:6b:ad:8d:ab:5b:83:f1:74:
        3e:3c:16:02:54:52:fc:93:72:e9:94:7e:56:e5:23:59:8c:d9:
        92:4b:12:fe:91:c2:d9:c2:45:2f:d1:a3:38:fa:e6:50:18:0b:
        ea:e5:11:6b:16:ed:62:78:f8:32:c7:16:cb:a3:25:30:df:fa:
        51:1a:e4:90:17:1a:1f:be:3e:c5:36:0c:7e:18:a4:29:d2:50:
        48:77:a1:94:bb:26:9c:55:65:1d:70:39:6f:78:1c:d3:84:c5:
        2a:ef:4f:ff:f0:10:dc:51:38:26:a1:9a:91:4c:0a:06:af:26:
        a2:af:f7:ad:20:d9:4c:ae:75:69:7f:1f:fa:ee:0f:e6:ff:93:
        5c:f4:80:4b:c9:93:db:22:a1:63:da:7c:35:8d:46:34:eb:5f:
        a1:47:2c:06:75:fe:3b:a3:58:a4:a9:d5:07:77:6c:7b:70:87:
        a7:5f:09:44:f5:5c:0a:7f:7c:be:f3:77:6e:2a:85:33:6a:bf:
        15:d7:a4:c2:cf:aa:26:ff:d8:45:32:75:58:43:98:1a:d2:fb:
        b4:97:8b:fc:97:1d:7e:aa:46:ee:24:c6:87:ed:38:52:65:ed:
        fd:6e:d9:2a:d3:02:a1:2f:d7:2b:7a:69:3d:fc:f4:8d:e5:5c:
        97:b0:1c:89:82:a9:ab:df:0f:f1:9d:fa:c9:72:d4:75:a4:d5:
        c1:0c:db:7c:24:3c:cc:94:6c:af:cf:29:3c:7f:79:24:99:8d:
        05:c3:5f:05:7a:56:4f:a9:1f:25:ce:e5:2f:f3:e5:39:ef:49:
        68:60:34:96:1d:5b:9a:4d:ae:a4:58:76:89:52:d8:c4:80:c4:
        c6:b9:d7:e3:13:ca:4e:9a:f3:73:fe:50:fe:50:ec:e2:68:d7:
        d2:95:6f:47:7d:67:04:05:ff:bf:d6:4e:92:2e:b2:7e:1a:2f:
        1d:3d:1d:d4:35:d3:c5:48:b9:c1:33:6c:24:7d:94:ba:8e:09:
        f8:0d:2d:42:01:11:0d:c5:93:ae:69:94:55:00:f0:46:93:36:
        4d:2d:a1:42:10:5c:fa:8e:4a:53:a3:3b:95:80:41:42:00:74:
        3a:6c:eb:c0:33:65:c6:44:6a:86:aa:19:8a:6b:99:a1:a7:da:
        ca:b7:e7:85:9f:22:b9:4f:f9:e8:de:49:e6:c8:84:4d:55:c5:
        4e:8c:a0:44:31:a9:06:b5:4f:9a:e1:4b:33:03:cb:1d:62:40:
        7d:2f:6b:01:0a:00:4d:15:95:0a:7f:ab:f2:0d:df:6a:43:29:
        d8:ab:42:be:c2:d3:de:a3:d5:a1:ea:13:f3:85:78:73:1d:d0:
        ba:94:ab:79:d4:19:31:6c
-----BEGIN X509 CRL-----
MIIDpjCCAY4CAQEwDQYJKoZIhvcNAQELBQAwgYMxCzAJBgNVBAYTAlVTMQ8wDQYD
VQQIDAZOZXZhZGExFDASBgNVBAcMC0NhcnNvbiBDaXR5MRAwDgYDVQQKDAdUWVMg
TExDMQ0wCwYDVQQLDARSb290MRAwDgYDVQQDDAdUWVNSb290MRowGAYJKoZIhvcN
AQkBFgtyb290QHR5cy5zaBcNMjUwNDIzMjE0OTM1WhcNMzUwNDIxMjE0OTM1WqCB
1TCB0jCBwwYDVR0jBIG7MIG4gBSaoBda62VXqlam3a4trwfI1ONKvaGBiaSBhjCB
gzELMAkGA1UEBhMCVVMxDzANBgNVBAgMBk5ldmFkYTEUMBIGA1UEBwwLQ2Fyc29u
IENpdHkxEDAOBgNVBAoMB1RZUyBMTEMxDTALBgNVBAsMBFJvb3QxEDAOBgNVBAMM
B1RZU1Jvb3QxGjAYBgkqhkiG9w0BCQEWC3Jvb3RAdHlzLnNoghRV3WZ5W2H0M9md
QR0bJ/pJNRrZGTAKBgNVHRQEAwIBADANBgkqhkiG9w0BAQsFAAOCAgEAlS7s+Ouw
6dbo5Gutjatbg/F0PjwWAlRS/JNy6ZR+VuUjWYzZkksS/pHC2cJFL9GjOPrmUBgL
6uURaxbtYnj4MscWy6MlMN/6URrkkBcaH74+xTYMfhikKdJQSHehlLsmnFVlHXA5
b3gc04TFKu9P//AQ3FE4JqGakUwKBq8moq/3rSDZTK51aX8f+u4P5v+TXPSAS8mT
2yKhY9p8NY1GNOtfoUcsBnX+O6NYpKnVB3dse3CHp18JRPVcCn98vvN3biqFM2q/
Fdekws+qJv/YRTJ1WEOYGtL7tJeL/JcdfqpG7iTGh+04UmXt/W7ZKtMCoS/XK3pp
Pfz0jeVcl7AciYKpq98P8Z36yXLUdaTVwQzbfCQ8zJRsr88pPH95JJmNBcNfBXpW
T6kfJc7lL/PlOe9JaGA0lh1bmk2upFh2iVLYxIDExrnX4xPKTprzc/5Q/lDs4mjX
0pVvR31nBAX/v9ZOki6yfhovHT0d1DXTxUi5wTNsJH2Uuo4J+A0tQgERDcWTrmmU
VQDwRpM2TS2hQhBc+o5KU6M7lYBBQgB0OmzrwDNlxkRqhqoZimuZoafayrfnhZ8i
uU/56N5J5siETVXFToygRDGpBrVPmuFLMwPLHWJAfS9rAQoATRWVCn+r8g3fakMp
2KtCvsLT3qPVoeoT84V4cx3QupSredQZMWw=
-----END X509 CRL-----
