Certificate Revocation List (CRL):
        Version 2 (0x1)
        Signature Algorithm: ecdsa-with-SHA256
        Issuer: C = US, ST = Nevada, L = Carson City, O = TYS LLC, OU = Host, CN = TYSServer, emailAddress = host@tys.sh
        Last Update: Apr 23 21:49:35 2025 GMT
        Next Update: Oct 20 21:49:35 2025 GMT
        CRL extensions:
            X509v3 Authority Key Identifier: 
                keyid:6A:13:66:54:B4:6C:CC:FC:C8:AA:05:05:E4:A7:7A:9D:FB:5E:1D:97
                DirName:/C=US/ST=Nevada/L=Carson City/O=TYS LLC/OU=Root/CN=TYSRoot/emailAddress=root@tys.sh
                serial:B3:0C:DD:F0:AD:2E:DE:D5:CD:B0:2E:18:B4:33:64:98
            X509v3 CRL Number: 
                1
No Revoked Certificates.
    Signature Algorithm: ecdsa-with-SHA256
    Signature Value:
        30:66:02:31:00:fa:28:12:01:64:d1:8a:e3:e1:b6:83:98:b0:
        77:16:4e:18:2a:72:a0:d6:86:8e:35:31:58:9a:8b:f8:00:95:
        65:d3:79:34:2f:8d:60:3e:b3:73:2b:84:26:3b:a9:7c:d9:02:
        31:00:e8:c3:ff:18:95:11:7d:94:5a:a5:79:8a:0b:f9:c0:4d:
        13:f4:f7:43:09:c9:34:58:e7:97:7b:b2:5a:7e:f6:1c:2d:be:
        18:5f:f7:a6:9e:75:69:eb:e5:a0:1e:6e:c2:03
-----BEGIN X509 CRL-----
MIICBTCCAYoCAQEwCgYIKoZIzj0EAwIwgYUxCzAJBgNVBAYTAlVTMQ8wDQYDVQQI
DAZOZXZhZGExFDASBgNVBAcMC0NhcnNvbiBDaXR5MRAwDgYDVQQKDAdUWVMgTExD
MQ0wCwYDVQQLDARIb3N0MRIwEAYDVQQDDAlUWVNTZXJ2ZXIxGjAYBgkqhkiG9w0B
CQEWC2hvc3RAdHlzLnNoFw0yNTA0MjMyMTQ5MzVaFw0yNTEwMjAyMTQ5MzVaoIHS
MIHPMIHABgNVHSMEgbgwgbWAFGoTZlS0bMz8yKoFBeSnep37Xh2XoYGJpIGGMIGD
MQswCQYDVQQGEwJVUzEPMA0GA1UECAwGTmV2YWRhMRQwEgYDVQQHDAtDYXJzb24g
Q2l0eTEQMA4GA1UECgwHVFlTIExMQzENMAsGA1UECwwEUm9vdDEQMA4GA1UEAwwH
VFlTUm9vdDEaMBgGCSqGSIb3DQEJARYLcm9vdEB0eXMuc2iCEQCzDN3wrS7e1c2w
Lhi0M2SYMAoGA1UdFAQDAgEBMAoGCCqGSM49BAMCA2kAMGYCMQD6KBIBZNGK4+G2
g5iwdxZOGCpyoNaGjjUxWJqL+ACVZdN5NC+NYD6zcyuEJjupfNkCMQDow/8YlRF9
lFqleYoL+cBNE/T3QwnJNFjnl3uyWn72HC2+GF/3pp51aevloB5uwgM=
-----END X509 CRL-----
