Certificate Revocation List (CRL):
        Version 2 (0x1)
        Signature Algorithm: sha256WithRSAEncryption
        Issuer: C = US, ST = Nevada, L = Carson City, O = TYS LLC, OU = Admin, CN = TYSClient, emailAddress = dev@tys.sh
        Last Update: Apr 23 21:49:34 2025 GMT
        Next Update: May 23 21:49:34 2025 GMT
        CRL extensions:
            X509v3 Authority Key Identifier: 
                keyid:E9:9C:DA:54:8C:77:0E:CF:CD:D1:DC:32:CB:6F:EB:9C:65:7F:38:E9
                DirName:/C=US/ST=Nevada/L=Carson City/O=TYS LLC/OU=Host/CN=TYSServer/emailAddress=host@tys.sh
                serial:DD:0A:C8:48:A3:6B:A1:F0:74:0F:64:57:AB:EA:34:5E
            X509v3 CRL Number: 
                1
No Revoked Certificates.
    Signature Algorithm: sha256WithRSAEncryption
    Signature Value:
        36:4c:63:5a:b7:a3:56:4b:f1:5d:47:f3:a3:96:2e:9d:bd:c2:
        b1:d4:e1:91:8e:70:d0:70:79:99:e8:68:c9:28:50:33:a2:a1:
        1e:00:0a:0b:b0:89:3d:91:40:8c:f1:d6:e7:c5:b4:14:c7:31:
        8e:61:61:dc:63:23:e4:39:20:ba:aa:96:6a:10:ed:d8:91:f3:
        3f:08:81:ca:fa:e7:f4:70:e5:29:d9:28:27:27:77:cf:48:9a:
        7b:25:0c:97:98:1c:a6:25:8d:9d:76:b6:5d:51:96:c2:46:da:
        00:40:99:73:0f:21:9e:35:44:f8:bc:f1:d4:f9:47:09:69:d2:
        d4:92:49:ff:3f:8d:cc:40:cd:42:a2:f9:0a:d9:66:46:f1:da:
        d8:76:00:74:5d:33:8d:3e:54:03:54:61:b9:6b:10:9c:d9:04:
        ad:8b:07:06:45:86:b0:30:f4:c9:50:ea:46:7b:35:c1:ed:eb:
        98:51:bd:13:31:77:66:24:4c:b3:8b:c9:9c:8a:24:aa:86:be:
        13:d2:8a:10:44:93:77:56:c5:65:9a:80:bb:ed:1d:b2:aa:60:
        d7:4e:7f:79:7d:01:d5:71:2d:20:2a:de:f6:82:be:76:a7:a2:
        ee:d2:e9:05:c4:40:fa:fc:d0:71:c0:f4:0a:17:e8:7a:a6:6c:
        6f:74:c6:e0:1d:70:be:bd:75:c2:03:dd:47:f4:73:f6:be:87:
        52:fd:4d:48:03:ed:c3:f9:a7:05:88:4d:17:70:28:0c:1f:38:
        cc:62:33:85:6c:d6:db:6a:58:e2:ef:ce:cd:5a:19:56:97:d9:
        64:67:e2:31:1f:80:a4:6c:42:5c:ed:5f:df:b7:40:c2:89:d4:
        20:26:21:b5:d7:59:bc:ee:7a:38:a2:af:95:a1:d1:0d:c2:ac:
        c2:b1:26:84:69:19:4c:5d:74:4d:d6:8a:4d:ae:44:73:3b:d7:
        79:ce:d8:74:2e:1c:e1:8a:90:c4:12:ad:45:55:8e:cd:2f:25:
        73:d0:a9:63:f1:f6:26:da:4f:44:6a:2c:38:92:2e:9d:42:a0:
        b2:5a:c2:bc:66:29:d0:23:f9:62:be:34:9f:68:20:b9:6d:eb:
        a1:62:e4:2b:98:f2:aa:4f:08:c6:ac:d5:9d:c4:52:2b:8e:80:
        23:f6:16:e8:26:8b:c4:a7:b7:c1:b9:fa:d6:5c:98:b8:68:7e:
        a8:ac:13:63:68:54:e3:e5:e3:c6:32:17:dd:82:c7:e6:13:19:
        92:39:ef:16:78:81:00:1d:a3:67:46:a2:89:0d:77:fd:46:f8:
        20:d5:a6:1a:e3:33:76:14:96:67:2c:09:c7:cb:7a:0c:07:dc:
        2a:9d:57:19:de:9e:00:93
-----BEGIN X509 CRL-----
MIIDpzCCAY8CAQEwDQYJKoZIhvcNAQELBQAwgYUxCzAJBgNVBAYTAlVTMQ8wDQYD
VQQIDAZOZXZhZGExFDASBgNVBAcMC0NhcnNvbiBDaXR5MRAwDgYDVQQKDAdUWVMg
TExDMQ4wDAYDVQQLDAVBZG1pbjESMBAGA1UEAwwJVFlTQ2xpZW50MRkwFwYJKoZI
hvcNAQkBFgpkZXZAdHlzLnNoFw0yNTA0MjMyMTQ5MzRaFw0yNTA1MjMyMTQ5MzRa
oIHUMIHRMIHCBgNVHSMEgbowgbeAFOmc2lSMdw7PzdHcMstv65xlfzjpoYGLpIGI
MIGFMQswCQYDVQQGEwJVUzEPMA0GA1UECAwGTmV2YWRhMRQwEgYDVQQHDAtDYXJz
b24gQ2l0eTEQMA4GA1UECgwHVFlTIExMQzENMAsGA1UECwwESG9zdDESMBAGA1UE
AwwJVFlTU2VydmVyMRowGAYJKoZIhvcNAQkBFgtob3N0QHR5cy5zaIIRAN0KyEij
a6HwdA9kV6vqNF4wCgYDVR0UBAMCAQEwDQYJKoZIhvcNAQELBQADggIBADZMY1q3
o1ZL8V1H86OWLp29wrHU4ZGOcNBweZnoaMkoUDOioR4ACguwiT2RQIzx1ufFtBTH
MY5hYdxjI+Q5ILqqlmoQ7diR8z8Igcr65/Rw5SnZKCcnd89ImnslDJeYHKYljZ12
tl1RlsJG2gBAmXMPIZ41RPi88dT5Rwlp0tSSSf8/jcxAzUKi+QrZZkbx2th2AHRd
M40+VANUYblrEJzZBK2LBwZFhrAw9MlQ6kZ7NcHt65hRvRMxd2YkTLOLyZyKJKqG
vhPSihBEk3dWxWWagLvtHbKqYNdOf3l9AdVxLSAq3vaCvnanou7S6QXEQPr80HHA
9AoX6HqmbG90xuAdcL69dcID3Uf0c/a+h1L9TUgD7cP5pwWITRdwKAwfOMxiM4Vs
1ttqWOLvzs1aGVaX2WRn4jEfgKRsQlztX9+3QMKJ1CAmIbXXWbzuejiir5Wh0Q3C
rMKxJoRpGUxddE3Wik2uRHM713nO2HQuHOGKkMQSrUVVjs0vJXPQqWPx9ibaT0Rq
LDiSLp1CoLJawrxmKdAj+WK+NJ9oILlt66Fi5CuY8qpPCMas1Z3EUiuOgCP2Fugm
i8Snt8G5+tZcmLhofqisE2NoVOPl48YyF92Cx+YTGZI57xZ4gQAdo2dGookNd/1G
+CDVphrjM3YUlmcsCcfLegwH3CqdVxnengCT
-----END X509 CRL-----
